target datalayout = "e-m:e-p270:32:32-p271:32:32-p272:64:64-i64:64-i128:128-f80:128-n8:16:32:64-S128"
target triple = "x86_64-pc-linux-gnu"

%struct.rotating_node_s = type { ptr, ptr, ptr }

; Function Attrs: nounwind uwtable
define hidden i32 @RotatingTree_Enum(ptr noundef %0, ptr noundef %1, ptr noundef %2) #0 {
  %4 = alloca i32, align 4
  %5 = alloca ptr, align 8
  %6 = alloca ptr, align 8
  %7 = alloca ptr, align 8
  %8 = alloca i32, align 4
  %9 = alloca ptr, align 8
  %10 = alloca i32, align 4
  store ptr %0, ptr %5, align 8, !tbaa !8
  store ptr %1, ptr %6, align 8, !tbaa !16
  store ptr %2, ptr %7, align 8, !tbaa !16
  call void @llvm.lifetime.start.p0(i64 4, ptr %8) #4
  call void @llvm.lifetime.start.p0(i64 8, ptr %9) #4
  br label %11

11:                                               ; preds = %37, %3
  %12 = load ptr, ptr %5, align 8, !tbaa !8
  %13 = icmp ne ptr %12, null
  br i1 %13, label %14, label %39

14:                                               ; preds = %11
  %15 = load ptr, ptr %5, align 8, !tbaa !8
  %16 = getelementptr inbounds nuw %struct.rotating_node_s, ptr %15, i32 0, i32 1
  %17 = load ptr, ptr %16, align 8, !tbaa !14
  %18 = load ptr, ptr %6, align 8, !tbaa !16
  %19 = load ptr, ptr %7, align 8, !tbaa !16
  %20 = call i32 @RotatingTree_Enum(ptr noundef %17, ptr noundef %18, ptr noundef %19)
  store i32 %20, ptr %8, align 4, !tbaa !18
  %21 = load i32, ptr %8, align 4, !tbaa !18
  %22 = icmp ne i32 %21, 0
  br i1 %22, label %23, label %25

23:                                               ; preds = %14
  %24 = load i32, ptr %8, align 4, !tbaa !18
  store i32 %24, ptr %4, align 4
  store i32 1, ptr %10, align 4
  br label %40

25:                                               ; preds = %14
  %26 = load ptr, ptr %5, align 8, !tbaa !8
  %27 = getelementptr inbounds nuw %struct.rotating_node_s, ptr %26, i32 0, i32 2
  %28 = load ptr, ptr %27, align 8, !tbaa !15
  store ptr %28, ptr %9, align 8, !tbaa !8
  %29 = load ptr, ptr %6, align 8, !tbaa !16
  %30 = load ptr, ptr %5, align 8, !tbaa !8
  %31 = load ptr, ptr %7, align 8, !tbaa !16
  %32 = call i32 %29(ptr noundef %30, ptr noundef %31)
  store i32 %32, ptr %8, align 4, !tbaa !18
  %33 = load i32, ptr %8, align 4, !tbaa !18
  %34 = icmp ne i32 %33, 0
  br i1 %34, label %35, label %37

35:                                               ; preds = %25
  %36 = load i32, ptr %8, align 4, !tbaa !18
  store i32 %36, ptr %4, align 4
  store i32 1, ptr %10, align 4
  br label %40

37:                                               ; preds = %25
  %38 = load ptr, ptr %9, align 8, !tbaa !8
  store ptr %38, ptr %5, align 8, !tbaa !8
  br label %11, !llvm.loop !20

39:                                               ; preds = %11
  store i32 0, ptr %4, align 4
  store i32 1, ptr %10, align 4
  br label %40

40:                                               ; preds = %39, %35, %23
  call void @llvm.lifetime.end.p0(i64 8, ptr %9) #4
  call void @llvm.lifetime.end.p0(i64 4, ptr %8) #4
  %41 = load i32, ptr %4, align 4
  ret i32 %41
}