; Function Attrs: nounwind uwtable
define hidden i32 @RotatingTree_Enum(ptr noundef %0, ptr noundef readonly captures(none) %1, ptr noundef %2) local_unnamed_addr #1 {
  br label %4

4:                                                ; preds = %9, %3
  %.013 = phi ptr [ %0, %3 ], [ %11, %9 ]
  %.not = icmp eq ptr %.013, null
  br i1 %.not, label %13, label %5

5:                                                ; preds = %4
  %6 = getelementptr inbounds nuw i8, ptr %.013, i64 8
  %7 = load ptr, ptr %6, align 8, !tbaa !15
  %8 = tail call i32 @RotatingTree_Enum(ptr noundef %7, ptr noundef %1, ptr noundef %2)
  %.not16 = icmp eq i32 %8, 0
  br i1 %.not16, label %9, label %13

9:                                                ; preds = %5
  %10 = getelementptr inbounds nuw i8, ptr %.013, i64 16
  %11 = load ptr, ptr %10, align 8, !tbaa !16
  %12 = tail call i32 %1(ptr noundef nonnull %.013, ptr noundef %2) #4
  %.not17 = icmp eq i32 %12, 0
  br i1 %.not17, label %4, label %13, !llvm.loop !17

13:                                               ; preds = %4, %9, %5
  %.0 = phi i32 [ %8, %5 ], [ %12, %9 ], [ 0, %4 ]
  ret i32 %.0
}